; Function Attrs: mustprogress nounwind uwtable
define void @_ZN3g2o18ParameterContainer5clearEv(ptr noundef nonnull align 8 dereferenceable(57) %0) local_unnamed_addr #4 align 2 personality ptr @__gxx_personality_v0 {
  %2 = getelementptr inbounds nuw i8, ptr %0, i64 56
  %3 = load i8, ptr %2, align 8, !tbaa !18, !range !26, !noundef !27
  %4 = trunc nuw i8 %3 to i1
  br i1 %4, label %5, label %26

5:                                                ; preds = %1
  %6 = getelementptr inbounds nuw i8, ptr %0, i64 8
  %7 = getelementptr inbounds nuw i8, ptr %0, i64 32
  %8 = load ptr, ptr %7, align 8, !tbaa !13
  %9 = getelementptr inbounds nuw i8, ptr %0, i64 16
  %.not4 = icmp eq ptr %8, %9
  br i1 %.not4, label %._crit_edge, label %.lr.ph

._crit_edge:                                      ; preds = %24, %5
  %10 = getelementptr inbounds nuw i8, ptr %0, i64 24
  %11 = load ptr, ptr %10, align 8, !tbaa !12
  invoke void @_ZNSt8_Rb_treeIiSt4pairIKiPN3g2o9ParameterEESt10_Select1stIS5_ESt4lessIiESaIS5_EE8_M_eraseEPSt13_Rb_tree_nodeIS5_E(ptr noundef nonnull align 8 dereferenceable(48) %6, ptr noundef %11)
          to label %_ZNSt3mapIiPN3g2o9ParameterESt4lessIiESaISt4pairIKiS2_EEE5clearEv.exit unwind label %12

12:                                               ; preds = %._crit_edge
  %13 = landingpad { ptr, i32 }
          catch ptr null
  %14 = extractvalue { ptr, i32 } %13, 0
  tail call void @__clang_call_terminate(ptr %14) #18
  unreachable

_ZNSt3mapIiPN3g2o9ParameterESt4lessIiESaISt4pairIKiS2_EEE5clearEv.exit: ; preds = %._crit_edge
  store ptr null, ptr %10, align 8, !tbaa !12
  store ptr %9, ptr %7, align 8, !tbaa !13
  %15 = getelementptr inbounds nuw i8, ptr %0, i64 40
  store ptr %9, ptr %15, align 8, !tbaa !14
  %16 = getelementptr inbounds nuw i8, ptr %0, i64 48
  store i64 0, ptr %16, align 8, !tbaa !15
  br label %26

.lr.ph:                                           ; preds = %5, %24
  %.sroa.01.05 = phi ptr [ %25, %24 ], [ %8, %5 ]
  %17 = getelementptr inbounds nuw i8, ptr %.sroa.01.05, i64 40
  %18 = load ptr, ptr %17, align 8, !tbaa !28
  %19 = icmp eq ptr %18, null
  br i1 %19, label %24, label %20

20:                                               ; preds = %.lr.ph
  %21 = load ptr, ptr %18, align 8, !tbaa !16
  %22 = getelementptr inbounds nuw i8, ptr %21, i64 8
  %23 = load ptr, ptr %22, align 8
  tail call void %23(ptr noundef nonnull align 8 dereferenceable(12) %18) #19
  br label %24

24:                                               ; preds = %.lr.ph, %20
  %25 = tail call noundef ptr @_ZSt18_Rb_tree_incrementPSt18_Rb_tree_node_base(ptr noundef nonnull %.sroa.01.05) #20
  %.not = icmp eq ptr %25, %9
  br i1 %.not, label %._crit_edge, label %.lr.ph, !llvm.loop !32

26:                                               ; preds = %1, %_ZNSt3mapIiPN3g2o9ParameterESt4lessIiESaISt4pairIKiS2_EEE5clearEv.exit
  ret void
}